target datalayout = "e-m:e-p270:32:32-p271:32:32-p272:64:64-i64:64-i128:128-f80:128-n8:16:32:64-S128"
target triple = "x86_64-pc-linux-gnu"

%struct.slurm_step_id_msg = type { i64, i32, i32, i32 }
%struct.step_location = type { ptr, ptr, i16, %struct.slurm_step_id_msg }
%struct.passwd = type { ptr, ptr, i32, i32, ptr, ptr, ptr }
%struct.group = type { ptr, ptr, i32, ptr }

@stderr = external global ptr, align 8
@.str.11 = private unnamed_addr constant [2 x i8] c"\0A\00", align 1
@.str.35 = private unnamed_addr constant [29 x i8] c"No steps found on this node\0A\00", align 1
@.str.36 = private unnamed_addr constant [17 x i8] c"JobId=%s:\0AUser:\0A\00", align 1
@.str.37 = private unnamed_addr constant [30 x i8] c"%s:%s:%u:%u:%s:%s:%s\0AGroups:\0A\00", align 1
@.str.38 = private unnamed_addr constant [13 x i8] c"%s:%s:%u:%s\0A\00", align 1
@.str.39 = private unnamed_addr constant [1 x i8] zeroinitializer, align 1

; Function Attrs: nounwind uwtable
define dso_local void @scontrol_getent(ptr noundef %0) #0 {
  %2 = alloca ptr, align 8
  %3 = alloca ptr, align 8
  %4 = alloca ptr, align 8
  %5 = alloca ptr, align 8
  %6 = alloca i32, align 4
  %7 = alloca ptr, align 8
  %8 = alloca ptr, align 8
  %9 = alloca i32, align 4
  %10 = alloca [45 x i8], align 16
  %11 = alloca i32, align 4
  store ptr %0, ptr %2, align 8
  call void @llvm.lifetime.start.p0(i64 8, ptr %3) #9
  store ptr null, ptr %3, align 8
  call void @llvm.lifetime.start.p0(i64 8, ptr %4) #9
  store ptr null, ptr %4, align 8
  call void @llvm.lifetime.start.p0(i64 8, ptr %5) #9
  call void @llvm.lifetime.start.p0(i64 4, ptr %6) #9
  call void @llvm.lifetime.start.p0(i64 8, ptr %7) #9
  store ptr null, ptr %7, align 8
  call void @llvm.lifetime.start.p0(i64 8, ptr %8) #9
  store ptr null, ptr %8, align 8
  %12 = load ptr, ptr %2, align 8
  %13 = call ptr @stepd_available(ptr noundef null, ptr noundef %12)
  store ptr %13, ptr %3, align 8
  %14 = icmp ne ptr %13, null
  br i1 %14, label %18, label %15

15:                                               ; preds = %1
  %16 = load ptr, ptr @stderr, align 8
  %17 = call i32 (ptr, ptr, ...) @fprintf(ptr noundef %16, ptr noundef @.str.35) #9
  store i32 1, ptr %9, align 4
  br label %161

18:                                               ; preds = %1
  %19 = load ptr, ptr %3, align 8
  %20 = call ptr @list_iterator_create(ptr noundef %19)
  store ptr %20, ptr %4, align 8
  br label %21

21:                                               ; preds = %150, %148, %18
  %22 = load ptr, ptr %4, align 8
  %23 = call ptr @list_next(ptr noundef %22)
  store ptr %23, ptr %5, align 8
  %24 = icmp ne ptr %23, null
  br i1 %24, label %25, label %151

25:                                               ; preds = %21
  call void @llvm.lifetime.start.p0(i64 45, ptr %10) #9
  %26 = load ptr, ptr %2, align 8
  %27 = load ptr, ptr %5, align 8
  %28 = getelementptr inbounds nuw %struct.step_location, ptr %27, i32 0, i32 3
  %29 = load ptr, ptr %5, align 8
  %30 = getelementptr inbounds nuw %struct.step_location, ptr %29, i32 0, i32 2
  %31 = call i32 @stepd_connect(ptr noundef null, ptr noundef %26, ptr noundef %28, ptr noundef %30)
  store i32 %31, ptr %6, align 4
  %32 = load i32, ptr %6, align 4
  %33 = icmp slt i32 %32, 0
  br i1 %33, label %34, label %35

34:                                               ; preds = %25
  store i32 2, ptr %9, align 4
  br label %148, !llvm.loop !19

35:                                               ; preds = %25
  %36 = load i32, ptr %6, align 4
  %37 = load ptr, ptr %5, align 8
  %38 = getelementptr inbounds nuw %struct.step_location, ptr %37, i32 0, i32 2
  %39 = load i16, ptr %38, align 8
  %40 = call ptr @stepd_getpw(i32 noundef %36, i16 noundef zeroext %39, i32 noundef 1, i32 noundef 0, ptr noundef null)
  store ptr %40, ptr %7, align 8
  %41 = load ptr, ptr %7, align 8
  %42 = icmp ne ptr %41, null
  br i1 %42, label %46, label %43

43:                                               ; preds = %35
  %44 = load i32, ptr %6, align 4
  %45 = call i32 @close(i32 noundef %44)
  store i32 2, ptr %9, align 4
  br label %148, !llvm.loop !19

46:                                               ; preds = %35
  %47 = load ptr, ptr %5, align 8
  %48 = getelementptr inbounds nuw %struct.step_location, ptr %47, i32 0, i32 3
  %49 = getelementptr inbounds [45 x i8], ptr %10, i64 0, i64 0
  %50 = call ptr @log_build_step_id_str(ptr noundef %48, ptr noundef %49, i32 noundef 45, i16 noundef zeroext 4)
  %51 = getelementptr inbounds [45 x i8], ptr %10, i64 0, i64 0
  %52 = call i32 (ptr, ...) @printf(ptr noundef @.str.36, ptr noundef %51)
  %53 = load ptr, ptr %7, align 8
  %54 = getelementptr inbounds nuw %struct.passwd, ptr %53, i32 0, i32 0
  %55 = load ptr, ptr %54, align 8
  %56 = load ptr, ptr %7, align 8
  %57 = getelementptr inbounds nuw %struct.passwd, ptr %56, i32 0, i32 1
  %58 = load ptr, ptr %57, align 8
  %59 = load ptr, ptr %7, align 8
  %60 = getelementptr inbounds nuw %struct.passwd, ptr %59, i32 0, i32 2
  %61 = load i32, ptr %60, align 8
  %62 = load ptr, ptr %7, align 8
  %63 = getelementptr inbounds nuw %struct.passwd, ptr %62, i32 0, i32 3
  %64 = load i32, ptr %63, align 4
  %65 = load ptr, ptr %7, align 8
  %66 = getelementptr inbounds nuw %struct.passwd, ptr %65, i32 0, i32 4
  %67 = load ptr, ptr %66, align 8
  %68 = load ptr, ptr %7, align 8
  %69 = getelementptr inbounds nuw %struct.passwd, ptr %68, i32 0, i32 5
  %70 = load ptr, ptr %69, align 8
  %71 = load ptr, ptr %7, align 8
  %72 = getelementptr inbounds nuw %struct.passwd, ptr %71, i32 0, i32 6
  %73 = load ptr, ptr %72, align 8
  %74 = call i32 (ptr, ...) @printf(ptr noundef @.str.37, ptr noundef %55, ptr noundef %58, i32 noundef %61, i32 noundef %64, ptr noundef %67, ptr noundef %70, ptr noundef %73)
  %75 = load ptr, ptr %7, align 8
  call void @xfree_struct_passwd(ptr noundef %75)
  %76 = load i32, ptr %6, align 4
  %77 = load ptr, ptr %5, align 8
  %78 = getelementptr inbounds nuw %struct.step_location, ptr %77, i32 0, i32 2
  %79 = load i16, ptr %78, align 8
  %80 = call ptr @stepd_getgr(i32 noundef %76, i16 noundef zeroext %79, i32 noundef 1, i32 noundef 0, ptr noundef null)
  store ptr %80, ptr %8, align 8
  %81 = load ptr, ptr %8, align 8
  %82 = icmp ne ptr %81, null
  br i1 %82, label %87, label %83

83:                                               ; preds = %46
  %84 = load i32, ptr %6, align 4
  %85 = call i32 @close(i32 noundef %84)
  %86 = call i32 (ptr, ...) @printf(ptr noundef @.str.11)
  store i32 2, ptr %9, align 4
  br label %148, !llvm.loop !19

87:                                               ; preds = %46
  call void @llvm.lifetime.start.p0(i64 4, ptr %11) #9
  store i32 0, ptr %11, align 4
  br label %88

88:                                               ; preds = %140, %87
  %89 = load ptr, ptr %8, align 8
  %90 = load i32, ptr %11, align 4
  %91 = sext i32 %90 to i64
  %92 = getelementptr inbounds ptr, ptr %89, i64 %91
  %93 = load ptr, ptr %92, align 8
  %94 = icmp ne ptr %93, null
  br i1 %94, label %96, label %95

95:                                               ; preds = %88
  store i32 4, ptr %9, align 4
  call void @llvm.lifetime.end.p0(i64 4, ptr %11) #9
  br label %143

96:                                               ; preds = %88
  %97 = load ptr, ptr %8, align 8
  %98 = load i32, ptr %11, align 4
  %99 = sext i32 %98 to i64
  %100 = getelementptr inbounds ptr, ptr %97, i64 %99
  %101 = load ptr, ptr %100, align 8
  %102 = getelementptr inbounds nuw %struct.group, ptr %101, i32 0, i32 0
  %103 = load ptr, ptr %102, align 8
  %104 = load ptr, ptr %8, align 8
  %105 = load i32, ptr %11, align 4
  %106 = sext i32 %105 to i64
  %107 = getelementptr inbounds ptr, ptr %104, i64 %106
  %108 = load ptr, ptr %107, align 8
  %109 = getelementptr inbounds nuw %struct.group, ptr %108, i32 0, i32 1
  %110 = load ptr, ptr %109, align 8
  %111 = load ptr, ptr %8, align 8
  %112 = load i32, ptr %11, align 4
  %113 = sext i32 %112 to i64
  %114 = getelementptr inbounds ptr, ptr %111, i64 %113
  %115 = load ptr, ptr %114, align 8
  %116 = getelementptr inbounds nuw %struct.group, ptr %115, i32 0, i32 2
  %117 = load i32, ptr %116, align 8
  %118 = load ptr, ptr %8, align 8
  %119 = load i32, ptr %11, align 4
  %120 = sext i32 %119 to i64
  %121 = getelementptr inbounds ptr, ptr %118, i64 %120
  %122 = load ptr, ptr %121, align 8
  %123 = getelementptr inbounds nuw %struct.group, ptr %122, i32 0, i32 3
  %124 = load ptr, ptr %123, align 8
  %125 = icmp ne ptr %124, null
  br i1 %125, label %126, label %136

126:                                              ; preds = %96
  %127 = load ptr, ptr %8, align 8
  %128 = load i32, ptr %11, align 4
  %129 = sext i32 %128 to i64
  %130 = getelementptr inbounds ptr, ptr %127, i64 %129
  %131 = load ptr, ptr %130, align 8
  %132 = getelementptr inbounds nuw %struct.group, ptr %131, i32 0, i32 3
  %133 = load ptr, ptr %132, align 8
  %134 = getelementptr inbounds ptr, ptr %133, i64 0
  %135 = load ptr, ptr %134, align 8
  br label %137

136:                                              ; preds = %96
  br label %137

137:                                              ; preds = %136, %126
  %138 = phi ptr [ %135, %126 ], [ @.str.39, %136 ]
  %139 = call i32 (ptr, ...) @printf(ptr noundef @.str.38, ptr noundef %103, ptr noundef %110, i32 noundef %117, ptr noundef %138)
  br label %140

140:                                              ; preds = %137
  %141 = load i32, ptr %11, align 4
  %142 = add nsw i32 %141, 1
  store i32 %142, ptr %11, align 4
  br label %88, !llvm.loop !20

143:                                              ; preds = %95
  %144 = load i32, ptr %6, align 4
  %145 = call i32 @close(i32 noundef %144)
  %146 = load ptr, ptr %8, align 8
  call void @xfree_struct_group_array(ptr noundef %146)
  %147 = call i32 (ptr, ...) @printf(ptr noundef @.str.11)
  store i32 0, ptr %9, align 4
  br label %148

148:                                              ; preds = %143, %83, %43, %34
  call void @llvm.lifetime.end.p0(i64 45, ptr %10) #9
  %149 = load i32, ptr %9, align 4
  switch i32 %149, label %164 [
    i32 0, label %150
    i32 2, label %21
  ]

150:                                              ; preds = %148
  br label %21, !llvm.loop !19

151:                                              ; preds = %21
  %152 = load ptr, ptr %4, align 8
  call void @list_iterator_destroy(ptr noundef %152)
  br label %153

153:                                              ; preds = %151
  %154 = load ptr, ptr %3, align 8
  %155 = icmp ne ptr %154, null
  br i1 %155, label %156, label %158

156:                                              ; preds = %153
  %157 = load ptr, ptr %3, align 8
  call void @list_destroy(ptr noundef %157)
  br label %158

158:                                              ; preds = %156, %153
  store ptr null, ptr %3, align 8
  br label %159

159:                                              ; preds = %158
  br label %160

160:                                              ; preds = %159
  store i32 0, ptr %9, align 4
  br label %161

161:                                              ; preds = %160, %15
  call void @llvm.lifetime.end.p0(i64 8, ptr %8) #9
  call void @llvm.lifetime.end.p0(i64 8, ptr %7) #9
  call void @llvm.lifetime.end.p0(i64 4, ptr %6) #9
  call void @llvm.lifetime.end.p0(i64 8, ptr %5) #9
  call void @llvm.lifetime.end.p0(i64 8, ptr %4) #9
  call void @llvm.lifetime.end.p0(i64 8, ptr %3) #9
  %162 = load i32, ptr %9, align 4
  switch i32 %162, label %164 [
    i32 0, label %163
    i32 1, label %163
  ]

163:                                              ; preds = %161, %161
  ret void

164:                                              ; preds = %161, %148
  unreachable
}