; Function Attrs: nounwind uwtable
define dso_local void @scontrol_getent(ptr noundef %0) local_unnamed_addr #0 {
  %2 = alloca [45 x i8], align 16
  %3 = tail call ptr @stepd_available(ptr noundef null, ptr noundef %0) #16
  %.not = icmp eq ptr %3, null
  br i1 %.not, label %4, label %7

4:                                                ; preds = %1
  %5 = load ptr, ptr @stderr, align 8
  %6 = tail call i64 @fwrite(ptr nonnull @.str.35, i64 28, i64 1, ptr %5) #18
  br label %60

7:                                                ; preds = %1
  %8 = tail call ptr @list_iterator_create(ptr noundef nonnull %3) #16
  %9 = tail call ptr @list_next(ptr noundef %8) #16
  %.not4856 = icmp eq ptr %9, null
  br i1 %.not4856, label %._crit_edge59, label %.lr.ph58

.lr.ph58:                                         ; preds = %7, %58
  %10 = phi ptr [ %59, %58 ], [ %9, %7 ]
  call void @llvm.lifetime.start.p0(i64 45, ptr nonnull %2) #16
  %11 = getelementptr inbounds nuw i8, ptr %10, i64 24
  %12 = getelementptr inbounds nuw i8, ptr %10, i64 16
  %13 = call i32 @stepd_connect(ptr noundef null, ptr noundef %0, ptr noundef nonnull %11, ptr noundef nonnull %12) #16
  %14 = icmp slt i32 %13, 0
  br i1 %14, label %58, label %15, !llvm.loop !24

15:                                               ; preds = %.lr.ph58
  %16 = load i16, ptr %12, align 8
  %17 = call ptr @stepd_getpw(i32 noundef %13, i16 noundef zeroext %16, i32 noundef 1, i32 noundef 0, ptr noundef null) #16
  %.not49 = icmp eq ptr %17, null
  br i1 %.not49, label %18, label %20

18:                                               ; preds = %15
  %19 = call i32 @close(i32 noundef %13) #16
  br label %58, !llvm.loop !24

20:                                               ; preds = %15
  %21 = call ptr @log_build_step_id_str(ptr noundef nonnull %11, ptr noundef nonnull %2, i32 noundef 45, i16 noundef zeroext 4) #16
  %22 = call i32 (ptr, ...) @printf(ptr noundef nonnull dereferenceable(1) @.str.36, ptr noundef nonnull %2)
  %23 = load ptr, ptr %17, align 8
  %24 = getelementptr inbounds nuw i8, ptr %17, i64 8
  %25 = load ptr, ptr %24, align 8
  %26 = getelementptr inbounds nuw i8, ptr %17, i64 16
  %27 = load i32, ptr %26, align 8
  %28 = getelementptr inbounds nuw i8, ptr %17, i64 20
  %29 = load i32, ptr %28, align 4
  %30 = getelementptr inbounds nuw i8, ptr %17, i64 24
  %31 = load ptr, ptr %30, align 8
  %32 = getelementptr inbounds nuw i8, ptr %17, i64 32
  %33 = load ptr, ptr %32, align 8
  %34 = getelementptr inbounds nuw i8, ptr %17, i64 40
  %35 = load ptr, ptr %34, align 8
  %36 = call i32 (ptr, ...) @printf(ptr noundef nonnull dereferenceable(1) @.str.37, ptr noundef %23, ptr noundef %25, i32 noundef %27, i32 noundef %29, ptr noundef %31, ptr noundef %33, ptr noundef %35)
  call void @xfree_struct_passwd(ptr noundef nonnull %17) #16
  %37 = load i16, ptr %12, align 8
  %38 = call ptr @stepd_getgr(i32 noundef %13, i16 noundef zeroext %37, i32 noundef 1, i32 noundef 0, ptr noundef null) #16
  %.not50 = icmp eq ptr %38, null
  br i1 %.not50, label %40, label %.preheader

.preheader:                                       ; preds = %20
  %39 = load ptr, ptr %38, align 8
  %.not5154 = icmp eq ptr %39, null
  br i1 %.not5154, label %._crit_edge, label %.lr.ph

40:                                               ; preds = %20
  %41 = call i32 @close(i32 noundef %13) #16
  %putchar = call i32 @putchar(i32 10)
  br label %58, !llvm.loop !24

._crit_edge:                                      ; preds = %53, %.preheader
  %42 = call i32 @close(i32 noundef %13) #16
  call void @xfree_struct_group_array(ptr noundef nonnull %38) #16
  %putchar52 = call i32 @putchar(i32 10)
  br label %58

.lr.ph:                                           ; preds = %.preheader, %53
  %indvars.iv = phi i64 [ %indvars.iv.next, %53 ], [ 0, %.preheader ]
  %43 = phi ptr [ %57, %53 ], [ %39, %.preheader ]
  %44 = load ptr, ptr %43, align 8
  %45 = getelementptr inbounds nuw i8, ptr %43, i64 8
  %46 = load ptr, ptr %45, align 8
  %47 = getelementptr inbounds nuw i8, ptr %43, i64 16
  %48 = load i32, ptr %47, align 8
  %49 = getelementptr inbounds nuw i8, ptr %43, i64 24
  %50 = load ptr, ptr %49, align 8
  %.not53 = icmp eq ptr %50, null
  br i1 %.not53, label %53, label %51

51:                                               ; preds = %.lr.ph
  %52 = load ptr, ptr %50, align 8
  br label %53

53:                                               ; preds = %.lr.ph, %51
  %54 = phi ptr [ %52, %51 ], [ @.str.39, %.lr.ph ]
  %55 = call i32 (ptr, ...) @printf(ptr noundef nonnull dereferenceable(1) @.str.38, ptr noundef %44, ptr noundef %46, i32 noundef %48, ptr noundef %54)
  %indvars.iv.next = add nuw nsw i64 %indvars.iv, 1
  %56 = getelementptr inbounds nuw ptr, ptr %38, i64 %indvars.iv.next
  %57 = load ptr, ptr %56, align 8
  %.not51 = icmp eq ptr %57, null
  br i1 %.not51, label %._crit_edge, label %.lr.ph, !llvm.loop !25

58:                                               ; preds = %.lr.ph58, %._crit_edge, %40, %18
  call void @llvm.lifetime.end.p0(i64 45, ptr nonnull %2) #16
  %59 = call ptr @list_next(ptr noundef %8) #16
  %.not48 = icmp eq ptr %59, null
  br i1 %.not48, label %._crit_edge59, label %.lr.ph58

._crit_edge59:                                    ; preds = %58, %7
  call void @list_iterator_destroy(ptr noundef %8) #16
  call void @list_destroy(ptr noundef nonnull %3) #16
  br label %60

60:                                               ; preds = %._crit_edge59, %4
  ret void
}